; Function Attrs: mustprogress nounwind uwtable
define dso_local void @_ZN15cmCTestGlobalVCD2Ev(ptr noundef nonnull align 8 dereferenceable(784) %0) unnamed_addr #4 align 2 personality ptr @__gxx_personality_v0 {
  store ptr getelementptr inbounds ({ [16 x ptr] }, ptr @_ZTV15cmCTestGlobalVC, i64 0, i32 0, i64 2), ptr %0, align 8
  %2 = getelementptr inbounds i8, ptr %0, i64 760
  tail call void @_ZNSt7__cxx1110_List_baseIN9cmCTestVC8RevisionESaIS2_EE8_M_clearEv(ptr noundef nonnull align 8 dereferenceable(24) %2) #17
  %3 = getelementptr inbounds i8, ptr %0, i64 504
  %4 = getelementptr inbounds i8, ptr %0, i64 728
  tail call void @_ZNSt7__cxx1112basic_stringIcSt11char_traitsIcESaIcEED1Ev(ptr noundef nonnull align 8 dereferenceable(32) %4) #17
  %5 = getelementptr inbounds i8, ptr %0, i64 696
  tail call void @_ZNSt7__cxx1112basic_stringIcSt11char_traitsIcESaIcEED1Ev(ptr noundef nonnull align 8 dereferenceable(32) %5) #17
  %6 = getelementptr inbounds i8, ptr %0, i64 664
  tail call void @_ZNSt7__cxx1112basic_stringIcSt11char_traitsIcESaIcEED1Ev(ptr noundef nonnull align 8 dereferenceable(32) %6) #17
  %7 = getelementptr inbounds i8, ptr %0, i64 632
  tail call void @_ZNSt7__cxx1112basic_stringIcSt11char_traitsIcESaIcEED1Ev(ptr noundef nonnull align 8 dereferenceable(32) %7) #17
  %8 = getelementptr inbounds i8, ptr %0, i64 600
  tail call void @_ZNSt7__cxx1112basic_stringIcSt11char_traitsIcESaIcEED1Ev(ptr noundef nonnull align 8 dereferenceable(32) %8) #17
  %9 = getelementptr inbounds i8, ptr %0, i64 568
  tail call void @_ZNSt7__cxx1112basic_stringIcSt11char_traitsIcESaIcEED1Ev(ptr noundef nonnull align 8 dereferenceable(32) %9) #17
  %10 = getelementptr inbounds i8, ptr %0, i64 536
  tail call void @_ZNSt7__cxx1112basic_stringIcSt11char_traitsIcESaIcEED1Ev(ptr noundef nonnull align 8 dereferenceable(32) %10) #17
  tail call void @_ZNSt7__cxx1112basic_stringIcSt11char_traitsIcESaIcEED1Ev(ptr noundef nonnull align 8 dereferenceable(32) %3) #17
  %11 = getelementptr inbounds i8, ptr %0, i64 472
  tail call void @_ZNSt7__cxx1112basic_stringIcSt11char_traitsIcESaIcEED1Ev(ptr noundef nonnull align 8 dereferenceable(32) %11) #17
  %12 = getelementptr inbounds i8, ptr %0, i64 440
  tail call void @_ZNSt7__cxx1112basic_stringIcSt11char_traitsIcESaIcEED1Ev(ptr noundef nonnull align 8 dereferenceable(32) %12) #17
  %13 = getelementptr inbounds i8, ptr %0, i64 392
  %14 = getelementptr inbounds i8, ptr %0, i64 408
  %15 = load ptr, ptr %14, align 8
  invoke void @_ZNSt8_Rb_treeINSt7__cxx1112basic_stringIcSt11char_traitsIcESaIcEEESt4pairIKS5_N15cmCTestGlobalVC9DirectoryEESt10_Select1stISA_ESt4lessIS5_ESaISA_EE8_M_eraseEPSt13_Rb_tree_nodeISA_E(ptr noundef nonnull align 8 dereferenceable(48) %13, ptr noundef %15)
          to label %_ZNSt3mapINSt7__cxx1112basic_stringIcSt11char_traitsIcESaIcEEEN15cmCTestGlobalVC9DirectoryESt4lessIS5_ESaISt4pairIKS5_S7_EEED2Ev.exit unwind label %16

16:                                               ; preds = %1
  %17 = landingpad { ptr, i32 }
          catch ptr null
  %18 = extractvalue { ptr, i32 } %17, 0
  tail call void @__clang_call_terminate(ptr %18) #18
  unreachable

_ZNSt3mapINSt7__cxx1112basic_stringIcSt11char_traitsIcESaIcEEEN15cmCTestGlobalVC9DirectoryESt4lessIS5_ESaISt4pairIKS5_S7_EEED2Ev.exit: ; preds = %1
  tail call void @_ZN9cmCTestVCD2Ev(ptr noundef nonnull align 8 dereferenceable(388) %0) #17
  ret void
}